target datalayout = "e-m:e-p270:32:32-p271:32:32-p272:64:64-i64:64-i128:128-f80:128-n8:16:32:64-S128"
target triple = "x86_64-pc-linux-gnu"

%struct._address = type { i32, i32, ptr, ptr }
%struct._packet_info = type { ptr, ptr, i32, i32, %struct.nstime_t, %struct.nstime_t, %struct.nstime_t, i8, ptr, ptr, ptr, ptr, %struct._address, %struct._address, %struct._address, %struct._address, %struct._address, %struct._address, i32, ptr, i8, [3 x i8], %struct.anon, i32, i32, i32, i32, ptr, i8, ptr, ptr, i16, i16, i32, i32, i16, i32, i32, ptr, ptr, ptr, i8, i8, i16, i16, i16, i32, i16, i16, ptr, ptr, ptr, ptr, ptr, i32, i32 }
%struct.nstime_t = type { i64, i32 }
%struct.anon = type { i8, [3 x i8] }

@null_address = internal global %struct._address zeroinitializer, align 8

; Function Attrs: null_pointer_is_valid sspstrong uwtable
define internal ptr @get_conversation_for_call(ptr noundef %0) #0 {
  %2 = alloca ptr, align 8
  %3 = alloca ptr, align 8
  store ptr %0, ptr %2, align 8
  call void @llvm.lifetime.start.p0(i64 8, ptr %3) #18
  %4 = load ptr, ptr %2, align 8
  %5 = getelementptr inbounds nuw %struct._packet_info, ptr %4, i32 0, i32 23
  %6 = load i32, ptr %5, align 8
  %7 = icmp eq i32 %6, 2
  br i1 %7, label %18, label %8

8:                                                ; preds = %1
  %9 = load ptr, ptr %2, align 8
  %10 = getelementptr inbounds nuw %struct._packet_info, ptr %9, i32 0, i32 23
  %11 = load i32, ptr %10, align 8
  %12 = icmp eq i32 %11, 10
  br i1 %12, label %18, label %13

13:                                               ; preds = %8
  %14 = load ptr, ptr %2, align 8
  %15 = getelementptr inbounds nuw %struct._packet_info, ptr %14, i32 0, i32 23
  %16 = load i32, ptr %15, align 8
  %17 = icmp eq i32 %16, 12
  br i1 %17, label %18, label %21

18:                                               ; preds = %13, %8, %1
  %19 = load ptr, ptr %2, align 8
  %20 = call ptr @find_conversation_pinfo(ptr noundef %19, i32 noundef 0)
  store ptr %20, ptr %3, align 8
  br label %35

21:                                               ; preds = %13
  %22 = load ptr, ptr %2, align 8
  %23 = getelementptr inbounds nuw %struct._packet_info, ptr %22, i32 0, i32 3
  %24 = load i32, ptr %23, align 4
  %25 = load ptr, ptr %2, align 8
  %26 = getelementptr inbounds nuw %struct._packet_info, ptr %25, i32 0, i32 16
  %27 = load ptr, ptr %2, align 8
  %28 = getelementptr inbounds nuw %struct._packet_info, ptr %27, i32 0, i32 23
  %29 = load i32, ptr %28, align 8
  %30 = call i32 @conversation_pt_to_conversation_type(i32 noundef %29)
  %31 = load ptr, ptr %2, align 8
  %32 = getelementptr inbounds nuw %struct._packet_info, ptr %31, i32 0, i32 25
  %33 = load i32, ptr %32, align 8
  %34 = call ptr @find_conversation(i32 noundef %24, ptr noundef %26, ptr noundef @null_address, i32 noundef %30, i32 noundef %33, i32 noundef 0, i32 noundef 196608)
  store ptr %34, ptr %3, align 8
  br label %35

35:                                               ; preds = %21, %18
  %36 = load ptr, ptr %3, align 8
  %37 = icmp eq ptr %36, null
  br i1 %37, label %38, label %87

38:                                               ; preds = %35
  %39 = load ptr, ptr %2, align 8
  %40 = getelementptr inbounds nuw %struct._packet_info, ptr %39, i32 0, i32 23
  %41 = load i32, ptr %40, align 8
  %42 = icmp eq i32 %41, 2
  br i1 %42, label %53, label %43

43:                                               ; preds = %38
  %44 = load ptr, ptr %2, align 8
  %45 = getelementptr inbounds nuw %struct._packet_info, ptr %44, i32 0, i32 23
  %46 = load i32, ptr %45, align 8
  %47 = icmp eq i32 %46, 10
  br i1 %47, label %53, label %48

48:                                               ; preds = %43
  %49 = load ptr, ptr %2, align 8
  %50 = getelementptr inbounds nuw %struct._packet_info, ptr %49, i32 0, i32 23
  %51 = load i32, ptr %50, align 8
  %52 = icmp eq i32 %51, 12
  br i1 %52, label %53, label %72

53:                                               ; preds = %48, %43, %38
  %54 = load ptr, ptr %2, align 8
  %55 = getelementptr inbounds nuw %struct._packet_info, ptr %54, i32 0, i32 3
  %56 = load i32, ptr %55, align 4
  %57 = load ptr, ptr %2, align 8
  %58 = getelementptr inbounds nuw %struct._packet_info, ptr %57, i32 0, i32 16
  %59 = load ptr, ptr %2, align 8
  %60 = getelementptr inbounds nuw %struct._packet_info, ptr %59, i32 0, i32 17
  %61 = load ptr, ptr %2, align 8
  %62 = getelementptr inbounds nuw %struct._packet_info, ptr %61, i32 0, i32 23
  %63 = load i32, ptr %62, align 8
  %64 = call i32 @conversation_pt_to_conversation_type(i32 noundef %63)
  %65 = load ptr, ptr %2, align 8
  %66 = getelementptr inbounds nuw %struct._packet_info, ptr %65, i32 0, i32 24
  %67 = load i32, ptr %66, align 4
  %68 = load ptr, ptr %2, align 8
  %69 = getelementptr inbounds nuw %struct._packet_info, ptr %68, i32 0, i32 25
  %70 = load i32, ptr %69, align 8
  %71 = call ptr @conversation_new(i32 noundef %56, ptr noundef %58, ptr noundef %60, i32 noundef %64, i32 noundef %67, i32 noundef %70, i32 noundef 0)
  store ptr %71, ptr %3, align 8
  br label %86

72:                                               ; preds = %48
  %73 = load ptr, ptr %2, align 8
  %74 = getelementptr inbounds nuw %struct._packet_info, ptr %73, i32 0, i32 3
  %75 = load i32, ptr %74, align 4
  %76 = load ptr, ptr %2, align 8
  %77 = getelementptr inbounds nuw %struct._packet_info, ptr %76, i32 0, i32 16
  %78 = load ptr, ptr %2, align 8
  %79 = getelementptr inbounds nuw %struct._packet_info, ptr %78, i32 0, i32 23
  %80 = load i32, ptr %79, align 8
  %81 = call i32 @conversation_pt_to_conversation_type(i32 noundef %80)
  %82 = load ptr, ptr %2, align 8
  %83 = getelementptr inbounds nuw %struct._packet_info, ptr %82, i32 0, i32 25
  %84 = load i32, ptr %83, align 8
  %85 = call ptr @conversation_new(i32 noundef %75, ptr noundef %77, ptr noundef @null_address, i32 noundef %81, i32 noundef %84, i32 noundef 0, i32 noundef 3)
  store ptr %85, ptr %3, align 8
  br label %86

86:                                               ; preds = %72, %53
  br label %87

87:                                               ; preds = %86, %35
  %88 = load ptr, ptr %3, align 8
  call void @llvm.lifetime.end.p0(i64 8, ptr %3) #18
  ret ptr %88
}